target datalayout = "e-m:e-p270:32:32-p271:32:32-p272:64:64-i64:64-i128:128-f80:128-n8:16:32:64-S128"
target triple = "x86_64-pc-linux-gnu"

%struct.SDL_IOStreamInterface = type { i32, ptr, ptr, ptr, ptr, ptr, ptr }
%struct.SDL_IOStream = type { %struct.SDL_IOStreamInterface, ptr, i32, i32 }

@.str.2 = private unnamed_addr constant [26 x i8] c"Parameter '%s' is invalid\00", align 1
@.str.11 = private unnamed_addr constant [8 x i8] c"context\00", align 1
@.str.18 = private unnamed_addr constant [32 x i8] c"That operation is not supported\00", align 1

; Function Attrs: nounwind uwtable
define hidden i64 @SDL_ReadIO_REAL(ptr noundef %0, ptr noundef %1, i64 noundef %2) #0 {
  %4 = alloca i64, align 8
  %5 = alloca ptr, align 8
  %6 = alloca ptr, align 8
  %7 = alloca i64, align 8
  %8 = alloca i64, align 8
  %9 = alloca i32, align 4
  store ptr %0, ptr %5, align 8
  store ptr %1, ptr %6, align 8
  store i64 %2, ptr %7, align 8
  call void @llvm.lifetime.start.p0(i64 8, ptr %8) #11
  %10 = load ptr, ptr %5, align 8
  %11 = icmp ne ptr %10, null
  br i1 %11, label %14, label %12

12:                                               ; preds = %3
  %13 = call zeroext i1 (ptr, ...) @SDL_SetError_REAL(ptr noundef @.str.2, ptr noundef @.str.11)
  store i64 0, ptr %4, align 8
  store i32 1, ptr %9, align 4
  br label %65

14:                                               ; preds = %3
  %15 = load ptr, ptr %5, align 8
  %16 = getelementptr inbounds nuw %struct.SDL_IOStream, ptr %15, i32 0, i32 0
  %17 = getelementptr inbounds nuw %struct.SDL_IOStreamInterface, ptr %16, i32 0, i32 3
  %18 = load ptr, ptr %17, align 8
  %19 = icmp ne ptr %18, null
  br i1 %19, label %24, label %20

20:                                               ; preds = %14
  %21 = load ptr, ptr %5, align 8
  %22 = getelementptr inbounds nuw %struct.SDL_IOStream, ptr %21, i32 0, i32 2
  store i32 5, ptr %22, align 8
  %23 = call zeroext i1 (ptr, ...) @SDL_SetError_REAL(ptr noundef @.str.18)
  store i64 0, ptr %4, align 8
  store i32 1, ptr %9, align 4
  br label %65

24:                                               ; preds = %14
  br label %25

25:                                               ; preds = %24
  %26 = load ptr, ptr %5, align 8
  %27 = getelementptr inbounds nuw %struct.SDL_IOStream, ptr %26, i32 0, i32 2
  store i32 0, ptr %27, align 8
  %28 = call zeroext i1 @SDL_ClearError_REAL()
  %29 = load i64, ptr %7, align 8
  %30 = icmp eq i64 %29, 0
  br i1 %30, label %31, label %32

31:                                               ; preds = %25
  store i64 0, ptr %4, align 8
  store i32 1, ptr %9, align 4
  br label %65

32:                                               ; preds = %25
  %33 = load ptr, ptr %5, align 8
  %34 = getelementptr inbounds nuw %struct.SDL_IOStream, ptr %33, i32 0, i32 0
  %35 = getelementptr inbounds nuw %struct.SDL_IOStreamInterface, ptr %34, i32 0, i32 3
  %36 = load ptr, ptr %35, align 8
  %37 = load ptr, ptr %5, align 8
  %38 = getelementptr inbounds nuw %struct.SDL_IOStream, ptr %37, i32 0, i32 1
  %39 = load ptr, ptr %38, align 8
  %40 = load ptr, ptr %6, align 8
  %41 = load i64, ptr %7, align 8
  %42 = load ptr, ptr %5, align 8
  %43 = getelementptr inbounds nuw %struct.SDL_IOStream, ptr %42, i32 0, i32 2
  %44 = call i64 %36(ptr noundef %39, ptr noundef %40, i64 noundef %41, ptr noundef %43)
  store i64 %44, ptr %8, align 8
  %45 = load i64, ptr %8, align 8
  %46 = icmp eq i64 %45, 0
  br i1 %46, label %47, label %63

47:                                               ; preds = %32
  %48 = load ptr, ptr %5, align 8
  %49 = getelementptr inbounds nuw %struct.SDL_IOStream, ptr %48, i32 0, i32 2
  %50 = load i32, ptr %49, align 8
  %51 = icmp eq i32 %50, 0
  br i1 %51, label %52, label %63

52:                                               ; preds = %47
  %53 = call ptr @SDL_GetError_REAL()
  %54 = load i8, ptr %53, align 1
  %55 = icmp ne i8 %54, 0
  br i1 %55, label %56, label %59

56:                                               ; preds = %52
  %57 = load ptr, ptr %5, align 8
  %58 = getelementptr inbounds nuw %struct.SDL_IOStream, ptr %57, i32 0, i32 2
  store i32 1, ptr %58, align 8
  br label %62

59:                                               ; preds = %52
  %60 = load ptr, ptr %5, align 8
  %61 = getelementptr inbounds nuw %struct.SDL_IOStream, ptr %60, i32 0, i32 2
  store i32 2, ptr %61, align 8
  br label %62

62:                                               ; preds = %59, %56
  br label %63

63:                                               ; preds = %62, %47, %32
  %64 = load i64, ptr %8, align 8
  store i64 %64, ptr %4, align 8
  store i32 1, ptr %9, align 4
  br label %65

65:                                               ; preds = %63, %31, %20, %12
  call void @llvm.lifetime.end.p0(i64 8, ptr %8) #11
  %66 = load i64, ptr %4, align 8
  ret i64 %66
}

; Function Attrs: nounwind uwtable
define hidden zeroext i1 @SDL_ReadU64BE_REAL(ptr noundef %0, ptr noundef %1) #0 {
  %3 = alloca ptr, align 8
  %4 = alloca ptr, align 8
  %5 = alloca i64, align 8
  %6 = alloca i8, align 1
  store ptr %0, ptr %3, align 8
  store ptr %1, ptr %4, align 8
  call void @llvm.lifetime.start.p0(i64 8, ptr %5) #11
  store i64 0, ptr %5, align 8
  call void @llvm.lifetime.start.p0(i64 1, ptr %6) #11
  store i8 0, ptr %6, align 1
  %7 = load ptr, ptr %3, align 8
  %8 = call i64 @SDL_ReadIO_REAL(ptr noundef %7, ptr noundef %5, i64 noundef 8)
  %9 = icmp eq i64 %8, 8
  br i1 %9, label %10, label %11

10:                                               ; preds = %2
  store i8 1, ptr %6, align 1
  br label %11

11:                                               ; preds = %10, %2
  %12 = load ptr, ptr %4, align 8
  %13 = icmp ne ptr %12, null
  br i1 %13, label %14, label %18

14:                                               ; preds = %11
  %15 = load i64, ptr %5, align 8
  %16 = call i64 @llvm.bswap.i64(i64 %15)
  %17 = load ptr, ptr %4, align 8
  store i64 %16, ptr %17, align 8
  br label %18

18:                                               ; preds = %14, %11
  %19 = load i8, ptr %6, align 1, !range !3, !noundef !4
  %20 = trunc i8 %19 to i1
  call void @llvm.lifetime.end.p0(i64 1, ptr %6) #11
  call void @llvm.lifetime.end.p0(i64 8, ptr %5) #11
  ret i1 %20
}